; Function Attrs: mustprogress nounwind uwtable
define internal fastcc void @_ZN6vectorIZN2dd10simplifier14simplify_exlinERKS_I8uint_setLb1EjERKS_INS0_3pddELb1EjERS7_E3monLb0EjED2Ev(ptr %.0.val) unnamed_addr #8 align 2 personality ptr @__gxx_personality_v0 {
  %.not.i = icmp eq ptr %.0.val, null
  br i1 %.not.i, label %_ZN6vectorIZN2dd10simplifier14simplify_exlinERKS_I8uint_setLb1EjERKS_INS0_3pddELb1EjERS7_E3monLb0EjE7destroyEv.exit, label %1

1:                                                ; preds = %0
  %2 = getelementptr inbounds i8, ptr %.0.val, i64 -8
  invoke void @_ZN6memory10deallocateEPv(ptr noundef nonnull %2)
          to label %_ZN6vectorIZN2dd10simplifier14simplify_exlinERKS_I8uint_setLb1EjERKS_INS0_3pddELb1EjERS7_E3monLb0EjE7destroyEv.exit unwind label %3

_ZN6vectorIZN2dd10simplifier14simplify_exlinERKS_I8uint_setLb1EjERKS_INS0_3pddELb1EjERS7_E3monLb0EjE7destroyEv.exit: ; preds = %0, %1
  ret void

3:                                                ; preds = %1
  %4 = landingpad { ptr, i32 }
          catch ptr null
  %5 = extractvalue { ptr, i32 } %4, 0
  tail call void @__clang_call_terminate(ptr %5) #24
  unreachable
}